target datalayout = "e-m:e-p270:32:32-p271:32:32-p272:64:64-i64:64-i128:128-f80:128-n8:16:32:64-S128"
target triple = "x86_64-pc-linux-gnu"

@.str.12 = private unnamed_addr constant [32 x i8] c"../openssl/crypto/cmp/cmp_asn.c\00", align 1
@__func__.OSSL_CMP_ATAV_push1 = private unnamed_addr constant [20 x i8] c"OSSL_CMP_ATAV_push1\00", align 1

; Function Attrs: inlinehint nounwind uwtable
define internal ptr @ossl_check_OSSL_CRMF_ATTRIBUTETYPEANDVALUE_type(ptr noundef %0) #3 {
  %2 = alloca ptr, align 8
  store ptr %0, ptr %2, align 8, !tbaa !87
  %3 = load ptr, ptr %2, align 8, !tbaa !87
  ret ptr %3
}

; Function Attrs: inlinehint nounwind uwtable
define internal ptr @ossl_check_OSSL_CRMF_ATTRIBUTETYPEANDVALUE_sk_type(ptr noundef %0) #3 {
  %2 = alloca ptr, align 8
  store ptr %0, ptr %2, align 8, !tbaa !36
  %3 = load ptr, ptr %2, align 8, !tbaa !36
  ret ptr %3
}

; Function Attrs: nounwind uwtable
define i32 @OSSL_CMP_ATAV_push1(ptr noundef %0, ptr noundef %1) #0 {
  %3 = alloca i32, align 4
  %4 = alloca ptr, align 8
  %5 = alloca ptr, align 8
  %6 = alloca i32, align 4
  %7 = alloca ptr, align 8
  %8 = alloca i32, align 4
  store ptr %0, ptr %4, align 8, !tbaa !34
  store ptr %1, ptr %5, align 8, !tbaa !87
  call void @llvm.lifetime.start.p0(i64 4, ptr %6) #4
  store i32 0, ptr %6, align 4, !tbaa !59
  call void @llvm.lifetime.start.p0(i64 8, ptr %7) #4
  %9 = load ptr, ptr %4, align 8, !tbaa !34
  %10 = icmp eq ptr %9, null
  br i1 %10, label %14, label %11

11:                                               ; preds = %2
  %12 = load ptr, ptr %5, align 8, !tbaa !87
  %13 = icmp eq ptr %12, null
  br i1 %13, label %14, label %15

14:                                               ; preds = %11, %2
  call void @ERR_new()
  call void @ERR_set_debug(ptr noundef @.str.12, i32 noundef 568, ptr noundef @__func__.OSSL_CMP_ATAV_push1)
  call void (i32, i32, ptr, ...) @ERR_set_error(i32 noundef 58, i32 noundef 103, ptr noundef null)
  br label %41

15:                                               ; preds = %11
  %16 = load ptr, ptr %4, align 8, !tbaa !34
  %17 = load ptr, ptr %16, align 8, !tbaa !36
  %18 = icmp eq ptr %17, null
  br i1 %18, label %19, label %25

19:                                               ; preds = %15
  %20 = call ptr @OPENSSL_sk_new_null()
  %21 = load ptr, ptr %4, align 8, !tbaa !34
  store ptr %20, ptr %21, align 8, !tbaa !36
  %22 = icmp eq ptr %20, null
  br i1 %22, label %23, label %24

23:                                               ; preds = %19
  br label %41

24:                                               ; preds = %19
  store i32 1, ptr %6, align 4, !tbaa !59
  br label %25

25:                                               ; preds = %24, %15
  %26 = load ptr, ptr %5, align 8, !tbaa !87
  %27 = call ptr @OSSL_CRMF_ATTRIBUTETYPEANDVALUE_dup(ptr noundef %26)
  store ptr %27, ptr %7, align 8, !tbaa !87
  %28 = icmp eq ptr %27, null
  br i1 %28, label %29, label %30

29:                                               ; preds = %25
  br label %41

30:                                               ; preds = %25
  %31 = load ptr, ptr %4, align 8, !tbaa !34
  %32 = load ptr, ptr %31, align 8, !tbaa !36
  %33 = call ptr @ossl_check_OSSL_CRMF_ATTRIBUTETYPEANDVALUE_sk_type(ptr noundef %32)
  %34 = load ptr, ptr %7, align 8, !tbaa !87
  %35 = call ptr @ossl_check_OSSL_CRMF_ATTRIBUTETYPEANDVALUE_type(ptr noundef %34)
  %36 = call i32 @OPENSSL_sk_push(ptr noundef %33, ptr noundef %35)
  %37 = icmp ne i32 %36, 0
  br i1 %37, label %38, label %39

38:                                               ; preds = %30
  store i32 1, ptr %3, align 4
  store i32 1, ptr %8, align 4
  br label %50

39:                                               ; preds = %30
  %40 = load ptr, ptr %7, align 8, !tbaa !87
  call void @OSSL_CRMF_ATTRIBUTETYPEANDVALUE_free(ptr noundef %40)
  br label %41

41:                                               ; preds = %39, %29, %23, %14
  %42 = load i32, ptr %6, align 4, !tbaa !59
  %43 = icmp ne i32 %42, 0
  br i1 %43, label %44, label %49

44:                                               ; preds = %41
  %45 = load ptr, ptr %4, align 8, !tbaa !34
  %46 = load ptr, ptr %45, align 8, !tbaa !36
  %47 = call ptr @ossl_check_OSSL_CRMF_ATTRIBUTETYPEANDVALUE_sk_type(ptr noundef %46)
  call void @OPENSSL_sk_free(ptr noundef %47)
  %48 = load ptr, ptr %4, align 8, !tbaa !34
  store ptr null, ptr %48, align 8, !tbaa !36
  br label %49

49:                                               ; preds = %44, %41
  store i32 0, ptr %3, align 4
  store i32 1, ptr %8, align 4
  br label %50

50:                                               ; preds = %49, %38
  call void @llvm.lifetime.end.p0(i64 8, ptr %7) #4
  call void @llvm.lifetime.end.p0(i64 4, ptr %6) #4
  %51 = load i32, ptr %3, align 4
  ret i32 %51
}