; Function Attrs: nounwind uwtable
define range(i32 0, 2) i32 @OSSL_CMP_ATAV_push1(ptr noundef captures(address_is_null) %0, ptr noundef %1) local_unnamed_addr #1 {
  %3 = icmp eq ptr %0, null
  %4 = icmp eq ptr %1, null
  %or.cond = or i1 %3, %4
  br i1 %or.cond, label %5, label %6

5:                                                ; preds = %2
  tail call void @ERR_new() #6
  tail call void @ERR_set_debug(ptr noundef nonnull @.str.12, i32 noundef 568, ptr noundef nonnull @__func__.OSSL_CMP_ATAV_push1) #6
  tail call void (i32, i32, ptr, ...) @ERR_set_error(i32 noundef 58, i32 noundef 103, ptr noundef null) #6
  br label %.thread

6:                                                ; preds = %2
  %7 = load ptr, ptr %0, align 8, !tbaa !28
  %.not19 = icmp eq ptr %7, null
  br i1 %.not19, label %8, label %11

8:                                                ; preds = %6
  %9 = tail call ptr @OPENSSL_sk_new_null() #6
  store ptr %9, ptr %0, align 8, !tbaa !28
  %10 = icmp eq ptr %9, null
  br i1 %10, label %.thread, label %11

11:                                               ; preds = %8, %6
  %12 = tail call ptr @OSSL_CRMF_ATTRIBUTETYPEANDVALUE_dup(ptr noundef nonnull %1) #6
  %13 = icmp eq ptr %12, null
  br i1 %13, label %18, label %14

14:                                               ; preds = %11
  %15 = load ptr, ptr %0, align 8, !tbaa !28
  %16 = tail call i32 @OPENSSL_sk_push(ptr noundef %15, ptr noundef nonnull %12) #6
  %.not = icmp eq i32 %16, 0
  br i1 %.not, label %17, label %.thread

17:                                               ; preds = %14
  tail call void @OSSL_CRMF_ATTRIBUTETYPEANDVALUE_free(ptr noundef nonnull %12) #6
  br label %18

18:                                               ; preds = %11, %17
  br i1 %.not19, label %19, label %.thread

19:                                               ; preds = %18
  %20 = load ptr, ptr %0, align 8, !tbaa !28
  tail call void @OPENSSL_sk_free(ptr noundef %20) #6
  store ptr null, ptr %0, align 8, !tbaa !28
  br label %.thread

.thread:                                          ; preds = %8, %5, %18, %19, %14
  %.0 = phi i32 [ 1, %14 ], [ 0, %19 ], [ 0, %18 ], [ 0, %5 ], [ 0, %8 ]
  ret i32 %.0
}